; Function Attrs: mustprogress uwtable
define dso_local void @_ZNK15StatementAssign6OutputERSoP7FactMgri(ptr noundef nonnull align 8 dereferenceable(136) %0, ptr noundef nonnull align 8 dereferenceable(8) %1, ptr nocapture readnone %2, i32 noundef %3) unnamed_addr #4 align 2 {
  tail call void @_Z10output_tabRSoi(ptr noundef nonnull align 8 dereferenceable(8) %1, i32 noundef %3)
  %5 = load ptr, ptr %0, align 8
  %6 = getelementptr inbounds i8, ptr %5, i64 80
  %7 = load ptr, ptr %6, align 8
  tail call void %7(ptr noundef nonnull align 8 dereferenceable(136) %0, ptr noundef nonnull align 8 dereferenceable(8) %1)
  %8 = tail call noundef nonnull align 8 dereferenceable(8) ptr @_ZStlsISt11char_traitsIcEERSt13basic_ostreamIcT_ES5_PKc(ptr noundef nonnull align 8 dereferenceable(8) %1, ptr noundef nonnull @.str.16)
  tail call void @_Z8outputlnRSo(ptr noundef nonnull align 8 dereferenceable(8) %1)
  ret void
}